(lp0
I4
aI2
aI276
aI1014
aI138
aI342
aI162
aI162
aI162
aI162
aI162
aI162
aI162
aI162
aI162
aI162
aI162
aI162
aI162
aI162
aI162
aI162
aI162
aI162
aI162
aI162
aI162
aI162
aI162
aI162
aI162
aI162
aI162
aI162
aI162
aI162
aI162
aI162
aI162
aI162
aI162
aI162
aI162
aI162
aI162
aI162
aI162
aI162
aI162
aI162
aI162
aI162
aI162
aI162
aI162
aI162
aI162
aI162
aI162
aI162
aI162
aI162
aI162
aI162
aI162
aI162
aI162
aI162
aI162
aI162
aI162
aI162
aI162
aI162
aI162
aI162
aI162
aI162
aI162
aI162
aI162
aI162
aI162
aI162
aI162
aI162
aI162
aI162
aI162
aI162
aI162
aI162
aI162
aI162
aI162
aI162
aI162
aI162
aI162
aI162
aI162
aI162
aI162
aI162
aI162
aI162
aI162
aI162
aI162
aI162
aI162
aI162
aI162
aI162
aI162
aI162
aI162
aI162
aI162
aI162
aI162
aI162
aI162
aI162
aI162
aI162
aI162
aI162
aI162
aI162
aI162
aI162
aI162
aI162
aI162
aI162
aI162
aI162
aI162
aI162
aI162
aI162
aI162
aI162
aI162
aI162
aI162
aI162
aI162
aI162
aI162
aI162
aI162
aI162
aI162
aI162
aI162
aI162
aI162
aI162
aI162
aI162
aI162
aI162
aI162
aI162
aI162
aI162
aI162
aI162
aI162
aI162
aI162
aI162
aI162
aI162
aI162
aI162
aI162
aI162
aI162
aI162
aI162
aI162
aI162
aI162
aI162
aI162
aI162
aI162
aI162
aI162
aI162
aI162
aI162
aI162
aI162
aI162
aI162
aI162
aI162
aI162
aI162
aI162
aI162
aI162
aI162
aI162
aI162
aI162
aI162
aI162
aI162
aI162
aI162
aI162
aI162
aI162
aI162
aI162
aI162
aI162
aI162
aI162
aI162
aI162
aI162
aI162
aI162
aI162
aI162
aI162
aI162
aI162
aI162
aI162
aI162
aI162
aI162
aI162
aI162
aI162
aI162
aI162
aI162
aI162
aI162
aI162
aI162
aI162
aI162
aI162
aI162
aI162
aI162
aI162
aI162
aI162
aI162
aI162
aI162
aI162
aI162
aI162
aI162
aI162
aI162
aI162
aI162
aI162
aI162
aI162
aI162
aI162
aI162
aI162
aI162
aI162
aI162
aI162
aI162
aI162
aI162
aI162
aI162
aI162
aI162
aI162
aI162
aI162
aI162
aI162
aI162
aI162
aI162
aI162
aI162
aI162
aI162
aI162
aI162
aI162
aI162
aI162
aI162
aI162
aI162
aI162
aI162
aI162
aI162
aI162
aI162
aI162
aI162
aI162
aI162
aI162
aI162
aI162
aI162
aI162
aI162
aI162
aI162
aI162
aI162
aI162
aI162
aI162
aI162
aI162
aI162
aI162
aI162
aI162
aI162
aI162
aI162
aI162
aI162
aI162
aI162
aI162
aI162
aI162
aI162
aI162
aI162
aI162
aI162
aI162
aI162
aI162
aI162
aI162
aI162
aI162
aI162
aI162
aI162
aI162
aI162
aI162
aI162
aI162
aI162
aI162
aI162
aI162
aI162
aI162
aI162
aI162
aI162
aI162
aI162
aI162
aI162
aI162
aI162
aI162
aI162
aI162
aI162
aI162
aI162
aI162
aI162
aI162
aI162
aI162
aI162
aI162
aI162
aI162
aI162
aI162
aI162
aI162
aI162
aI162
aI162
aI162
aI162
aI162
aI162
aI162
aI162
aI162
aI162
aI162
aI162
aI162
aI162
aI162
aI162
aI162
aI162
aI162
aI162
aI162
aI162
aI162
aI162
aI162
aI162
aI162
aI162
aI162
aI162
aI162
aI162
aI162
aI162
aI162
aI162
aI162
aI162
aI162
aI162
aI162
aI162
aI162
aI162
aI162
aI162
aI162
aI162
aI162
aI162
aI162
aI162
aI162
aI162
aI162
aI162
aI162
aI162
aI162
aI162
aI162
aI162
aI162
aI162
aI162
aI162
aI162
aI162
aI162
aI162
aI162
aI162
aI162
aI162
aI162
aI162
aI162
aI162
aI162
aI162
aI162
aI162
aI162
aI162
aI162
aI162
aI162
aI162
aI162
aI162
aI162
aI162
aI162
aI162
aI162
aI162
aI162
aI162
aI162
aI162
aI162
aI162
aI162
aI162
aI162
aI162
aI162
aI162
aI162
aI162
aI162
aI162
aI162
aI162
aI162
aI162
aI162
aI162
aI162
aI162
aI162
aI162
aI162
aI162
aI162
aI162
aI162
aI162
aI162
aI162
aI162
aI162
aI162
aI162
aI162
aI162
aI162
aI162
aI162
aI162
aI162
aI162
aI162
aI162
aI162
aI162
aI162
aI162
aI162
aI162
aI162
aI162
aI162
aI162
aI162
aI162
aI162
aI162
aI162
aI162
aI162
aI162
aI162
aI162
aI162
aI162
aI162
aI162
aI162
aI162
aI162
aI162
aI162
aI162
aI162
aI162
aI162
aI162
aI162
aI162
aI162
aI162
aI162
aI162
aI162
aI162
aI162
aI162
aI162
aI162
aI162
aI162
aI162
aI162
aI162
aI162
aI162
aI162
aI162
aI162
aI162
aI162
aI162
aI162
aI162
aI162
aI162
aI162
aI162
aI162
aI162
aI162
aI162
aI162
aI162
aI162
aI356
aI356
aI356
aI356
aI356
aI356
aI356
aI356
aI356
aI356
aI356
aI356
aI356
aI356
aI356
aI356
aI356
aI356
aI356
aI356
aI356
aI356
aI356
aI356
aI356
aI356
aI356
aI356
aI356
aI356
aI356
aI356
aI356
aI356
aI356
aI356
aI356
aI356
aI356
aI356
aI356
aI356
aI356
aI356
aI356
aI356
aI356
aI356
aI356
aI356
aI356
aI356
aI356
aI356
aI356
aI356
aI356
aI356
aI356
aI356
aI356
aI356
aI356
aI356
aI356
aI356
aI356
aI356
aI356
aI356
aI356
aI356
aI356
aI356
aI356
aI356
aI356
aI356
aI356
aI356
aI356
aI356
aI356
aI356
aI356
aI356
aI356
aI356
aI356
aI356
aI356
aI356
aI356
aI356
aI356
aI356
aI356
aI356
aI356
aI356
aI356
aI356
aI356
aI356
aI356
aI356
aI356
aI356
aI356
aI356
aI356
aI356
aI356
aI356
aI356
aI356
aI356
aI356
aI356
aI356
aI356
aI356
aI356
aI356
aI356
aI356
aI356
aI356
aI356
aI356
aI356
aI356
aI356
aI356
aI356
aI356
aI356
aI356
aI356
aI356
aI356
aI356
aI356
aI356
aI356
aI356
aI356
aI356
aI356
aI356
aI356
aI356
aI356
aI356
aI356
aI356
aI356
aI356
aI356
aI356
aI356
aI356
aI356
aI356
aI356
aI356
aI356
aI356
aI356
aI356
aI356
aI356
aI356
aI356
aI356
aI356
aI356
aI356
aI356
aI356
aI356
aI356
aI356
aI356
aI356
aI356
aI356
aI356
aI356
aI356
aI356
aI192
aI152
aI228
aI168
aI304
aI136
aI212
aI474
aI96
aI342
aI186
aI232
aI566
aI256
aI412
aI176
aI198
aI226
a.